; Function Attrs: nounwind uwtable
define i32 @Kit_TruthToGia(ptr noundef %0, ptr noundef %1, i32 noundef %2, ptr noundef %3, ptr noundef readonly %4, i32 noundef %5) local_unnamed_addr #0 {
  %7 = icmp eq ptr %3, null
  br i1 %7, label %8, label %13

8:                                                ; preds = %6
  %calloc = tail call dereferenceable_or_null(16) ptr @calloc(i64 1, i64 16)
  %9 = getelementptr inbounds nuw i8, ptr %calloc, i64 8
  %10 = tail call ptr @Kit_TruthToGraph(ptr noundef %1, i32 noundef %2, ptr noundef nonnull %calloc) #14
  %11 = load ptr, ptr %9, align 8
  %.not.i = icmp eq ptr %11, null
  br i1 %.not.i, label %Vec_IntFree.exit, label %12

12:                                               ; preds = %8
  tail call void @free(ptr noundef nonnull %11) #14
  br label %Vec_IntFree.exit

Vec_IntFree.exit:                                 ; preds = %8, %12
  tail call void @free(ptr noundef nonnull %calloc) #14
  br label %15

13:                                               ; preds = %6
  %14 = tail call ptr @Kit_TruthToGraph(ptr noundef %1, i32 noundef %2, ptr noundef nonnull %3) #14
  br label %15

15:                                               ; preds = %13, %Vec_IntFree.exit
  %.0 = phi ptr [ %10, %Vec_IntFree.exit ], [ %14, %13 ]
  %16 = icmp eq ptr %.0, null
  br i1 %16, label %.split17, label %.split

.split:                                           ; preds = %15
  %17 = getelementptr inbounds nuw i8, ptr %.0, i64 4
  %18 = load i32, ptr %17, align 4
  %19 = icmp sgt i32 %18, 0
  br i1 %19, label %.lr.ph.i, label %Kit_GraphToGia.exit

.lr.ph.i:                                         ; preds = %.split
  %20 = getelementptr i8, ptr %.0, i64 16
  %.not.i19 = icmp eq ptr %4, null
  %21 = getelementptr i8, ptr %4, i64 8
  %22 = getelementptr i8, ptr %0, i64 32
  %23 = getelementptr i8, ptr %0, i64 64
  br i1 %.not.i19, label %.lr.ph.split.us.i, label %.lr.ph.split.i

.lr.ph.split.us.i:                                ; preds = %.lr.ph.i, %.lr.ph.split.us.i
  %indvars.iv22.i = phi i64 [ %indvars.iv.next23.i, %.lr.ph.split.us.i ], [ 0, %.lr.ph.i ]
  %.val.us.i = load ptr, ptr %20, align 8
  %.val16.us.i = load ptr, ptr %22, align 8
  %.val17.us.i = load ptr, ptr %23, align 8
  %24 = getelementptr i8, ptr %.val17.us.i, i64 8
  %.val17.val.us.i = load ptr, ptr %24, align 8
  %25 = getelementptr inbounds nuw i32, ptr %.val17.val.us.i, i64 %indvars.iv22.i
  %26 = load i32, ptr %25, align 4
  %27 = sext i32 %26 to i64
  %28 = getelementptr inbounds %struct.Gia_Obj_t_, ptr %.val16.us.i, i64 %27
  %29 = ptrtoint ptr %28 to i64
  %30 = and i64 %29, -2
  %31 = ptrtoint ptr %.val16.us.i to i64
  %32 = sub i64 %30, %31
  %33 = sdiv exact i64 %32, 12
  %34 = trunc i64 %33 to i32
  %35 = trunc i64 %29 to i32
  %36 = and i32 %35, 1
  %37 = shl nsw i32 %34, 1
  %38 = or disjoint i32 %37, %36
  %39 = getelementptr inbounds nuw %struct.Kit_Node_t_, ptr %.val.us.i, i64 %indvars.iv22.i, i32 2
  store i32 %38, ptr %39, align 8
  %indvars.iv.next23.i = add nuw nsw i64 %indvars.iv22.i, 1
  %40 = load i32, ptr %17, align 4
  %41 = sext i32 %40 to i64
  %42 = icmp slt i64 %indvars.iv.next23.i, %41
  br i1 %42, label %.lr.ph.split.us.i, label %Kit_GraphToGia.exit, !llvm.loop !6

.lr.ph.split.i:                                   ; preds = %.lr.ph.i, %.lr.ph.split.i
  %indvars.iv.i = phi i64 [ %indvars.iv.next.i, %.lr.ph.split.i ], [ 0, %.lr.ph.i ]
  %.val.i = load ptr, ptr %20, align 8
  %.val15.i = load ptr, ptr %21, align 8
  %43 = getelementptr inbounds nuw i32, ptr %.val15.i, i64 %indvars.iv.i
  %44 = load i32, ptr %43, align 4
  %45 = getelementptr inbounds nuw %struct.Kit_Node_t_, ptr %.val.i, i64 %indvars.iv.i, i32 2
  store i32 %44, ptr %45, align 8
  %indvars.iv.next.i = add nuw nsw i64 %indvars.iv.i, 1
  %46 = load i32, ptr %17, align 4
  %47 = sext i32 %46 to i64
  %48 = icmp slt i64 %indvars.iv.next.i, %47
  br i1 %48, label %.lr.ph.split.i, label %Kit_GraphToGia.exit, !llvm.loop !6

.split17:                                         ; preds = %15
  %puts = tail call i32 @puts(ptr nonnull dereferenceable(1) @str)
  tail call void @Kit_DsdPrintFromTruth(ptr noundef %1, i32 noundef %2) #14
  %putchar = tail call i32 @putchar(i32 10)
  %49 = load i32, ptr inttoptr (i64 4 to ptr), align 4
  %50 = icmp sgt i32 %49, 0
  tail call void @llvm.assume(i1 %50)
  %.not.i21 = icmp eq ptr %4, null
  %51 = getelementptr i8, ptr %4, i64 8
  %52 = getelementptr i8, ptr %0, i64 32
  %53 = getelementptr i8, ptr %0, i64 64
  br i1 %.not.i21, label %.lr.ph.split.us.i27, label %.lr.ph.split.i22

.lr.ph.split.us.i27:                              ; preds = %.split17, %.lr.ph.split.us.i27
  %indvars.iv22.i28 = phi i64 [ %indvars.iv.next23.i33, %.lr.ph.split.us.i27 ], [ 0, %.split17 ]
  %.val.us.i29 = load ptr, ptr inttoptr (i64 16 to ptr), align 16
  %.val16.us.i30 = load ptr, ptr %52, align 8
  %.val17.us.i31 = load ptr, ptr %53, align 8
  %54 = getelementptr i8, ptr %.val17.us.i31, i64 8
  %.val17.val.us.i32 = load ptr, ptr %54, align 8
  %55 = getelementptr inbounds nuw i32, ptr %.val17.val.us.i32, i64 %indvars.iv22.i28
  %56 = load i32, ptr %55, align 4
  %57 = sext i32 %56 to i64
  %58 = getelementptr inbounds %struct.Gia_Obj_t_, ptr %.val16.us.i30, i64 %57
  %59 = ptrtoint ptr %58 to i64
  %60 = and i64 %59, -2
  %61 = ptrtoint ptr %.val16.us.i30 to i64
  %62 = sub i64 %60, %61
  %63 = sdiv exact i64 %62, 12
  %64 = trunc i64 %63 to i32
  %65 = trunc i64 %59 to i32
  %66 = and i32 %65, 1
  %67 = shl nsw i32 %64, 1
  %68 = or disjoint i32 %67, %66
  %69 = getelementptr inbounds nuw %struct.Kit_Node_t_, ptr %.val.us.i29, i64 %indvars.iv22.i28, i32 2
  store i32 %68, ptr %69, align 8
  %indvars.iv.next23.i33 = add nuw nsw i64 %indvars.iv22.i28, 1
  %70 = load i32, ptr inttoptr (i64 4 to ptr), align 4
  %71 = sext i32 %70 to i64
  %72 = icmp slt i64 %indvars.iv.next23.i33, %71
  tail call void @llvm.assume(i1 %72)
  br label %.lr.ph.split.us.i27

.lr.ph.split.i22:                                 ; preds = %.split17, %.lr.ph.split.i22
  %indvars.iv.i23 = phi i64 [ %indvars.iv.next.i26, %.lr.ph.split.i22 ], [ 0, %.split17 ]
  %.val.i24 = load ptr, ptr inttoptr (i64 16 to ptr), align 16
  %.val15.i25 = load ptr, ptr %51, align 8
  %73 = getelementptr inbounds nuw i32, ptr %.val15.i25, i64 %indvars.iv.i23
  %74 = load i32, ptr %73, align 4
  %75 = getelementptr inbounds nuw %struct.Kit_Node_t_, ptr %.val.i24, i64 %indvars.iv.i23, i32 2
  store i32 %74, ptr %75, align 8
  %indvars.iv.next.i26 = add nuw nsw i64 %indvars.iv.i23, 1
  %76 = load i32, ptr inttoptr (i64 4 to ptr), align 4
  %77 = sext i32 %76 to i64
  %78 = icmp slt i64 %indvars.iv.next.i26, %77
  tail call void @llvm.assume(i1 %78)
  br label %.lr.ph.split.i22

Kit_GraphToGia.exit:                              ; preds = %.lr.ph.split.i, %.lr.ph.split.us.i, %.split
  %79 = tail call i32 @Kit_GraphToGiaInternal(ptr noundef %0, ptr noundef nonnull %.0, i32 noundef %5)
  tail call void @Kit_GraphFree(ptr noundef nonnull %.0) #14
  ret i32 %79
}